; Function Attrs: mustprogress nounwind uwtable
define ptr @uprv_dlsym_func_77(ptr noundef %0, ptr noundef %1, ptr noundef captures(none) %2) local_unnamed_addr #0 {
  %4 = load i32, ptr %2, align 4, !tbaa !13
  %5 = icmp slt i32 %4, 1
  br i1 %5, label %6, label %10

6:                                                ; preds = %3
  %7 = tail call ptr @dlsym(ptr noundef %0, ptr noundef %1) #32
  %8 = icmp eq ptr %7, null
  br i1 %8, label %9, label %10

9:                                                ; preds = %6
  store i32 2, ptr %2, align 4, !tbaa !13
  br label %10

10:                                               ; preds = %6, %9, %3
  %.0 = phi ptr [ null, %3 ], [ null, %9 ], [ %7, %6 ]
  ret ptr %.0
}